; ModuleID = 'source-C-CXX/3/1744.c'
source_filename = "source-C-CXX/3/1744.c"
target datalayout = "e-m:e-p270:32:32-p271:32:32-p272:64:64-i64:64-f80:128-n8:16:32:64-S128"
target triple = "x86_64-pc-linux-gnu"

@.str = private unnamed_addr constant [5 x i8] c"%d%d\00", align 1
@.str.1 = private unnamed_addr constant [3 x i8] c"%d\00", align 1
@.str.2 = private unnamed_addr constant [4 x i8] c"%d\0A\00", align 1

; Function Attrs: nofree nounwind sspstrong uwtable
define dso_local i32 @main() local_unnamed_addr #0 {
  %1 = alloca i32, align 4
  %2 = alloca i32, align 4
  %3 = alloca [100 x [100 x i32]], align 16
  %4 = bitcast i32* %1 to i8*
  call void @llvm.lifetime.start.p0i8(i64 4, i8* nonnull %4) #3
  %5 = bitcast i32* %2 to i8*
  call void @llvm.lifetime.start.p0i8(i64 4, i8* nonnull %5) #3
  %6 = bitcast [100 x [100 x i32]]* %3 to i8*
  call void @llvm.lifetime.start.p0i8(i64 40000, i8* nonnull %6) #3
  %7 = call i32 (i8*, ...) @__isoc99_scanf(i8* getelementptr inbounds ([5 x i8], [5 x i8]* @.str, i64 0, i64 0), i32* nonnull %1, i32* nonnull %2)
  %8 = load i32, i32* %1, align 4, !tbaa !5
  %9 = icmp sgt i32 %8, 0
  %10 = load i32, i32* %2, align 4, !tbaa !5
  %11 = icmp sgt i32 %10, 0
  %12 = select i1 %9, i1 %11, i1 false
  br i1 %12, label %13, label %34

13:                                               ; preds = %0, %28
  %14 = phi i32 [ %29, %28 ], [ %8, %0 ]
  %15 = phi i32 [ %30, %28 ], [ %10, %0 ]
  %16 = phi i64 [ %31, %28 ], [ 0, %0 ]
  %17 = icmp sgt i32 %15, 0
  br i1 %17, label %18, label %28

18:                                               ; preds = %13, %18
  %19 = phi i64 [ %22, %18 ], [ 0, %13 ]
  %20 = getelementptr inbounds [100 x [100 x i32]], [100 x [100 x i32]]* %3, i64 0, i64 %16, i64 %19
  %21 = call i32 (i8*, ...) @__isoc99_scanf(i8* getelementptr inbounds ([3 x i8], [3 x i8]* @.str.1, i64 0, i64 0), i32* nonnull %20)
  %22 = add nuw nsw i64 %19, 1
  %23 = load i32, i32* %2, align 4, !tbaa !5
  %24 = sext i32 %23 to i64
  %25 = icmp slt i64 %22, %24
  br i1 %25, label %18, label %26, !llvm.loop !9

26:                                               ; preds = %18
  %27 = load i32, i32* %1, align 4, !tbaa !5
  br label %28

28:                                               ; preds = %26, %13
  %29 = phi i32 [ %27, %26 ], [ %14, %13 ]
  %30 = phi i32 [ %23, %26 ], [ %15, %13 ]
  %31 = add nuw nsw i64 %16, 1
  %32 = sext i32 %29 to i64
  %33 = icmp slt i64 %31, %32
  br i1 %33, label %13, label %34, !llvm.loop !11

34:                                               ; preds = %28, %0
  %35 = phi i32 [ %10, %0 ], [ %30, %28 ]
  %36 = phi i32 [ %8, %0 ], [ %29, %28 ]
  %37 = icmp slt i32 %35, %36
  br i1 %37, label %43, label %38

38:                                               ; preds = %34
  %39 = add nsw i32 %36, %35
  %40 = icmp sgt i32 %39, -1
  %41 = icmp sgt i32 %36, 0
  %42 = and i1 %40, %41
  br i1 %42, label %82, label %116

43:                                               ; preds = %34
  %44 = add nsw i32 %35, %36
  %45 = icmp sgt i32 %44, -1
  %46 = icmp sgt i32 %36, 0
  %47 = and i1 %45, %46
  br i1 %47, label %48, label %116

48:                                               ; preds = %43, %75
  %49 = phi i32 [ %76, %75 ], [ %35, %43 ]
  %50 = phi i32 [ %77, %75 ], [ %36, %43 ]
  %51 = phi i64 [ %78, %75 ], [ 0, %43 ]
  %52 = icmp sgt i32 %50, 0
  br i1 %52, label %53, label %75

53:                                               ; preds = %48, %66
  %54 = phi i32 [ %67, %66 ], [ %50, %48 ]
  %55 = phi i32 [ %68, %66 ], [ %50, %48 ]
  %56 = phi i32 [ %74, %66 ], [ %49, %48 ]
  %57 = phi i64 [ %69, %66 ], [ 0, %48 ]
  %58 = sub nsw i64 %51, %57
  %59 = sext i32 %56 to i64
  %60 = icmp slt i64 %58, %59
  br i1 %60, label %61, label %66

61:                                               ; preds = %53
  %62 = getelementptr inbounds [100 x [100 x i32]], [100 x [100 x i32]]* %3, i64 0, i64 %57, i64 %58
  %63 = load i32, i32* %62, align 4, !tbaa !5
  %64 = call i32 (i8*, ...) @printf(i8* nonnull dereferenceable(1) getelementptr inbounds ([4 x i8], [4 x i8]* @.str.2, i64 0, i64 0), i32 %63)
  %65 = load i32, i32* %1, align 4, !tbaa !5
  br label %66

66:                                               ; preds = %53, %61
  %67 = phi i32 [ %54, %53 ], [ %65, %61 ]
  %68 = phi i32 [ %55, %53 ], [ %65, %61 ]
  %69 = add nuw nsw i64 %57, 1
  %70 = sext i32 %68 to i64
  %71 = icmp slt i64 %69, %70
  %72 = icmp ugt i64 %51, %57
  %73 = select i1 %71, i1 %72, i1 false
  %74 = load i32, i32* %2, align 4, !tbaa !5
  br i1 %73, label %53, label %75, !llvm.loop !13

75:                                               ; preds = %66, %48
  %76 = phi i32 [ %49, %48 ], [ %74, %66 ]
  %77 = phi i32 [ %50, %48 ], [ %67, %66 ]
  %78 = add nuw nsw i64 %51, 1
  %79 = add nsw i32 %76, %77
  %80 = sext i32 %79 to i64
  %81 = icmp slt i64 %51, %80
  br i1 %81, label %48, label %116, !llvm.loop !14

82:                                               ; preds = %38, %109
  %83 = phi i32 [ %110, %109 ], [ %36, %38 ]
  %84 = phi i32 [ %111, %109 ], [ %35, %38 ]
  %85 = phi i64 [ %112, %109 ], [ 0, %38 ]
  %86 = icmp sgt i32 %83, 0
  br i1 %86, label %87, label %109

87:                                               ; preds = %82, %100
  %88 = phi i32 [ %101, %100 ], [ %83, %82 ]
  %89 = phi i32 [ %102, %100 ], [ %83, %82 ]
  %90 = phi i32 [ %108, %100 ], [ %84, %82 ]
  %91 = phi i64 [ %103, %100 ], [ 0, %82 ]
  %92 = sub nsw i64 %85, %91
  %93 = sext i32 %90 to i64
  %94 = icmp slt i64 %92, %93
  br i1 %94, label %95, label %100

95:                                               ; preds = %87
  %96 = getelementptr inbounds [100 x [100 x i32]], [100 x [100 x i32]]* %3, i64 0, i64 %91, i64 %92
  %97 = load i32, i32* %96, align 4, !tbaa !5
  %98 = call i32 (i8*, ...) @printf(i8* nonnull dereferenceable(1) getelementptr inbounds ([4 x i8], [4 x i8]* @.str.2, i64 0, i64 0), i32 %97)
  %99 = load i32, i32* %1, align 4
  br label %100

100:                                              ; preds = %87, %95
  %101 = phi i32 [ %88, %87 ], [ %99, %95 ]
  %102 = phi i32 [ %89, %87 ], [ %99, %95 ]
  %103 = add nuw nsw i64 %91, 1
  %104 = icmp ugt i64 %85, %91
  %105 = sext i32 %102 to i64
  %106 = icmp slt i64 %103, %105
  %107 = select i1 %104, i1 %106, i1 false
  %108 = load i32, i32* %2, align 4, !tbaa !5
  br i1 %107, label %87, label %109, !llvm.loop !15

109:                                              ; preds = %100, %82
  %110 = phi i32 [ %83, %82 ], [ %101, %100 ]
  %111 = phi i32 [ %84, %82 ], [ %108, %100 ]
  %112 = add nuw nsw i64 %85, 1
  %113 = add nsw i32 %110, %111
  %114 = sext i32 %113 to i64
  %115 = icmp slt i64 %85, %114
  br i1 %115, label %82, label %116, !llvm.loop !16

116:                                              ; preds = %109, %75, %38, %43
  call void @llvm.lifetime.end.p0i8(i64 40000, i8* nonnull %6) #3
  call void @llvm.lifetime.end.p0i8(i64 4, i8* nonnull %5) #3
  call void @llvm.lifetime.end.p0i8(i64 4, i8* nonnull %4) #3
  ret i32 0
}

; Function Attrs: argmemonly mustprogress nofree nosync nounwind willreturn
declare void @llvm.lifetime.start.p0i8(i64 immarg, i8* nocapture) #1

; Function Attrs: nofree nounwind
declare noundef i32 @__isoc99_scanf(i8* nocapture noundef readonly, ...) local_unnamed_addr #2

; Function Attrs: nofree nounwind
declare noundef i32 @printf(i8* nocapture noundef readonly, ...) local_unnamed_addr #2

; Function Attrs: argmemonly mustprogress nofree nosync nounwind willreturn
declare void @llvm.lifetime.end.p0i8(i64 immarg, i8* nocapture) #1


!llvm.module.flags = !{!0, !1, !2, !3}
!llvm.ident = !{!4}

!0 = !{i32 1, !"wchar_size", i32 4}
!1 = !{i32 7, !"PIC Level", i32 2}
!2 = !{i32 7, !"PIE Level", i32 2}
!3 = !{i32 7, !"uwtable", i32 1}
!4 = !{!"clang version 13.0.0"}
!5 = !{!6, !6, i64 0}
!6 = !{!"int", !7, i64 0}
!7 = !{!"omnipotent char", !8, i64 0}
!8 = !{!"Simple C/C++ TBAA"}
!9 = distinct !{!9, !10}
!10 = !{!"llvm.loop.mustprogress"}
!11 = distinct !{!11, !10, !12}
!12 = !{!"llvm.loop.unswitch.partial.disable"}
!13 = distinct !{!13, !10}
!14 = distinct !{!14, !10, !12}
!15 = distinct !{!15, !10}
!16 = distinct !{!16, !10, !12}
